target datalayout = "e-m:e-p270:32:32-p271:32:32-p272:64:64-i64:64-i128:128-f80:128-n8:16:32:64-S128"
target triple = "x86_64-pc-linux-gnu"

%struct.Vec_Ptr_t_ = type { i32, i32, ptr }

@.str.20 = private unnamed_addr constant [3 x i8] c"rb\00", align 1
@.str.21 = private unnamed_addr constant [29 x i8] c"Cannot open node list \22%s\22.\0A\00", align 1
@.str.22 = private unnamed_addr constant [5 x i8] c" \0A\0D\09\00", align 1
@.str.23 = private unnamed_addr constant [24 x i8] c"Cannot find node \22%s\22.\0A\00", align 1

; Function Attrs: inlinehint nounwind uwtable
define internal void @Vec_PtrGrow(ptr noundef %0, i32 noundef %1) #3 {
  %3 = alloca ptr, align 8
  %4 = alloca i32, align 4
  store ptr %0, ptr %3, align 8, !tbaa !31
  store i32 %1, ptr %4, align 4, !tbaa !8
  %5 = load ptr, ptr %3, align 8, !tbaa !31
  %6 = getelementptr inbounds nuw %struct.Vec_Ptr_t_, ptr %5, i32 0, i32 0
  %7 = load i32, ptr %6, align 8, !tbaa !112
  %8 = load i32, ptr %4, align 4, !tbaa !8
  %9 = icmp sge i32 %7, %8
  br i1 %9, label %10, label %11

10:                                               ; preds = %2
  br label %36

11:                                               ; preds = %2
  %12 = load ptr, ptr %3, align 8, !tbaa !31
  %13 = getelementptr inbounds nuw %struct.Vec_Ptr_t_, ptr %12, i32 0, i32 2
  %14 = load ptr, ptr %13, align 8, !tbaa !36
  %15 = icmp ne ptr %14, null
  br i1 %15, label %16, label %24

16:                                               ; preds = %11
  %17 = load ptr, ptr %3, align 8, !tbaa !31
  %18 = getelementptr inbounds nuw %struct.Vec_Ptr_t_, ptr %17, i32 0, i32 2
  %19 = load ptr, ptr %18, align 8, !tbaa !36
  %20 = load i32, ptr %4, align 4, !tbaa !8
  %21 = sext i32 %20 to i64
  %22 = mul i64 8, %21
  %23 = call ptr @realloc(ptr noundef %19, i64 noundef %22) #12
  br label %29

24:                                               ; preds = %11
  %25 = load i32, ptr %4, align 4, !tbaa !8
  %26 = sext i32 %25 to i64
  %27 = mul i64 8, %26
  %28 = call noalias ptr @malloc(i64 noundef %27) #10
  br label %29

29:                                               ; preds = %24, %16
  %30 = phi ptr [ %23, %16 ], [ %28, %24 ]
  %31 = load ptr, ptr %3, align 8, !tbaa !31
  %32 = getelementptr inbounds nuw %struct.Vec_Ptr_t_, ptr %31, i32 0, i32 2
  store ptr %30, ptr %32, align 8, !tbaa !36
  %33 = load i32, ptr %4, align 4, !tbaa !8
  %34 = load ptr, ptr %3, align 8, !tbaa !31
  %35 = getelementptr inbounds nuw %struct.Vec_Ptr_t_, ptr %34, i32 0, i32 0
  store i32 %33, ptr %35, align 8, !tbaa !112
  br label %36

36:                                               ; preds = %29, %10
  ret void
}

; Function Attrs: inlinehint nounwind uwtable
define internal void @Vec_PtrPush(ptr noundef %0, ptr noundef %1) #3 {
  %3 = alloca ptr, align 8
  %4 = alloca ptr, align 8
  store ptr %0, ptr %3, align 8, !tbaa !31
  store ptr %1, ptr %4, align 8, !tbaa !37
  %5 = load ptr, ptr %3, align 8, !tbaa !31
  %6 = getelementptr inbounds nuw %struct.Vec_Ptr_t_, ptr %5, i32 0, i32 1
  %7 = load i32, ptr %6, align 4, !tbaa !34
  %8 = load ptr, ptr %3, align 8, !tbaa !31
  %9 = getelementptr inbounds nuw %struct.Vec_Ptr_t_, ptr %8, i32 0, i32 0
  %10 = load i32, ptr %9, align 8, !tbaa !112
  %11 = icmp eq i32 %7, %10
  br i1 %11, label %12, label %26

12:                                               ; preds = %2
  %13 = load ptr, ptr %3, align 8, !tbaa !31
  %14 = getelementptr inbounds nuw %struct.Vec_Ptr_t_, ptr %13, i32 0, i32 0
  %15 = load i32, ptr %14, align 8, !tbaa !112
  %16 = icmp slt i32 %15, 16
  br i1 %16, label %17, label %19

17:                                               ; preds = %12
  %18 = load ptr, ptr %3, align 8, !tbaa !31
  call void @Vec_PtrGrow(ptr noundef %18, i32 noundef 16)
  br label %25

19:                                               ; preds = %12
  %20 = load ptr, ptr %3, align 8, !tbaa !31
  %21 = load ptr, ptr %3, align 8, !tbaa !31
  %22 = getelementptr inbounds nuw %struct.Vec_Ptr_t_, ptr %21, i32 0, i32 0
  %23 = load i32, ptr %22, align 8, !tbaa !112
  %24 = mul nsw i32 2, %23
  call void @Vec_PtrGrow(ptr noundef %20, i32 noundef %24)
  br label %25

25:                                               ; preds = %19, %17
  br label %26

26:                                               ; preds = %25, %2
  %27 = load ptr, ptr %4, align 8, !tbaa !37
  %28 = load ptr, ptr %3, align 8, !tbaa !31
  %29 = getelementptr inbounds nuw %struct.Vec_Ptr_t_, ptr %28, i32 0, i32 2
  %30 = load ptr, ptr %29, align 8, !tbaa !36
  %31 = load ptr, ptr %3, align 8, !tbaa !31
  %32 = getelementptr inbounds nuw %struct.Vec_Ptr_t_, ptr %31, i32 0, i32 1
  %33 = load i32, ptr %32, align 4, !tbaa !34
  %34 = add nsw i32 %33, 1
  store i32 %34, ptr %32, align 4, !tbaa !34
  %35 = sext i32 %33 to i64
  %36 = getelementptr inbounds ptr, ptr %30, i64 %35
  store ptr %27, ptr %36, align 8, !tbaa !37
  ret void
}

; Function Attrs: inlinehint nounwind uwtable
define internal void @Vec_PtrFree(ptr noundef %0) #3 {
  %2 = alloca ptr, align 8
  store ptr %0, ptr %2, align 8, !tbaa !31
  %3 = load ptr, ptr %2, align 8, !tbaa !31
  %4 = getelementptr inbounds nuw %struct.Vec_Ptr_t_, ptr %3, i32 0, i32 2
  %5 = load ptr, ptr %4, align 8, !tbaa !36
  %6 = icmp ne ptr %5, null
  br i1 %6, label %7, label %13

7:                                                ; preds = %1
  %8 = load ptr, ptr %2, align 8, !tbaa !31
  %9 = getelementptr inbounds nuw %struct.Vec_Ptr_t_, ptr %8, i32 0, i32 2
  %10 = load ptr, ptr %9, align 8, !tbaa !36
  call void @free(ptr noundef %10) #9
  %11 = load ptr, ptr %2, align 8, !tbaa !31
  %12 = getelementptr inbounds nuw %struct.Vec_Ptr_t_, ptr %11, i32 0, i32 2
  store ptr null, ptr %12, align 8, !tbaa !36
  br label %14

13:                                               ; preds = %1
  br label %14

14:                                               ; preds = %13, %7
  %15 = load ptr, ptr %2, align 8, !tbaa !31
  %16 = icmp ne ptr %15, null
  br i1 %16, label %17, label %19

17:                                               ; preds = %14
  %18 = load ptr, ptr %2, align 8, !tbaa !31
  call void @free(ptr noundef %18) #9
  store ptr null, ptr %2, align 8, !tbaa !31
  br label %20

19:                                               ; preds = %14
  br label %20

20:                                               ; preds = %19, %17
  ret void
}

; Function Attrs: inlinehint nounwind uwtable
define internal ptr @Vec_PtrAlloc(i32 noundef %0) #3 {
  %2 = alloca i32, align 4
  %3 = alloca ptr, align 8
  store i32 %0, ptr %2, align 4, !tbaa !8
  call void @llvm.lifetime.start.p0(i64 8, ptr %3) #9
  %4 = call noalias ptr @malloc(i64 noundef 16) #10
  store ptr %4, ptr %3, align 8, !tbaa !31
  %5 = load i32, ptr %2, align 4, !tbaa !8
  %6 = icmp sgt i32 %5, 0
  br i1 %6, label %7, label %11

7:                                                ; preds = %1
  %8 = load i32, ptr %2, align 4, !tbaa !8
  %9 = icmp slt i32 %8, 8
  br i1 %9, label %10, label %11

10:                                               ; preds = %7
  store i32 8, ptr %2, align 4, !tbaa !8
  br label %11

11:                                               ; preds = %10, %7, %1
  %12 = load ptr, ptr %3, align 8, !tbaa !31
  %13 = getelementptr inbounds nuw %struct.Vec_Ptr_t_, ptr %12, i32 0, i32 1
  store i32 0, ptr %13, align 4, !tbaa !34
  %14 = load i32, ptr %2, align 4, !tbaa !8
  %15 = load ptr, ptr %3, align 8, !tbaa !31
  %16 = getelementptr inbounds nuw %struct.Vec_Ptr_t_, ptr %15, i32 0, i32 0
  store i32 %14, ptr %16, align 8, !tbaa !112
  %17 = load ptr, ptr %3, align 8, !tbaa !31
  %18 = getelementptr inbounds nuw %struct.Vec_Ptr_t_, ptr %17, i32 0, i32 0
  %19 = load i32, ptr %18, align 8, !tbaa !112
  %20 = icmp ne i32 %19, 0
  br i1 %20, label %21, label %28

21:                                               ; preds = %11
  %22 = load ptr, ptr %3, align 8, !tbaa !31
  %23 = getelementptr inbounds nuw %struct.Vec_Ptr_t_, ptr %22, i32 0, i32 0
  %24 = load i32, ptr %23, align 8, !tbaa !112
  %25 = sext i32 %24 to i64
  %26 = mul i64 8, %25
  %27 = call noalias ptr @malloc(i64 noundef %26) #10
  br label %29

28:                                               ; preds = %11
  br label %29

29:                                               ; preds = %28, %21
  %30 = phi ptr [ %27, %21 ], [ null, %28 ]
  %31 = load ptr, ptr %3, align 8, !tbaa !31
  %32 = getelementptr inbounds nuw %struct.Vec_Ptr_t_, ptr %31, i32 0, i32 2
  store ptr %30, ptr %32, align 8, !tbaa !36
  %33 = load ptr, ptr %3, align 8, !tbaa !31
  call void @llvm.lifetime.end.p0(i64 8, ptr %3) #9
  ret ptr %33
}

; Function Attrs: nounwind uwtable
define ptr @Abc_NtkReadNodeNames(ptr noundef %0, ptr noundef %1) #0 {
  %3 = alloca ptr, align 8
  %4 = alloca ptr, align 8
  %5 = alloca ptr, align 8
  %6 = alloca [1000 x i8], align 16
  %7 = alloca ptr, align 8
  %8 = alloca ptr, align 8
  %9 = alloca i32, align 4
  %10 = alloca ptr, align 8
  %11 = alloca ptr, align 8
  store ptr %0, ptr %4, align 8, !tbaa !3
  store ptr %1, ptr %5, align 8, !tbaa !71
  call void @llvm.lifetime.start.p0(i64 1000, ptr %6) #9
  call void @llvm.lifetime.start.p0(i64 8, ptr %7) #9
  store ptr null, ptr %7, align 8, !tbaa !31
  call void @llvm.lifetime.start.p0(i64 8, ptr %8) #9
  %12 = load ptr, ptr %5, align 8, !tbaa !71
  %13 = call noalias ptr @fopen(ptr noundef %12, ptr noundef @.str.20)
  store ptr %13, ptr %8, align 8, !tbaa !64
  %14 = load ptr, ptr %8, align 8, !tbaa !64
  %15 = icmp eq ptr %14, null
  br i1 %15, label %16, label %19

16:                                               ; preds = %2
  %17 = load ptr, ptr %5, align 8, !tbaa !71
  %18 = call i32 (ptr, ...) @printf(ptr noundef @.str.21, ptr noundef %17)
  store ptr null, ptr %3, align 8
  store i32 1, ptr %9, align 4
  br label %59

19:                                               ; preds = %2
  %20 = call ptr @Vec_PtrAlloc(i32 noundef 100)
  store ptr %20, ptr %7, align 8, !tbaa !31
  br label %21

21:                                               ; preds = %54, %19
  %22 = getelementptr inbounds [1000 x i8], ptr %6, i64 0, i64 0
  %23 = load ptr, ptr %8, align 8, !tbaa !64
  %24 = call ptr @fgets(ptr noundef %22, i32 noundef 1000, ptr noundef %23)
  %25 = icmp ne ptr %24, null
  br i1 %25, label %26, label %55

26:                                               ; preds = %21
  call void @llvm.lifetime.start.p0(i64 8, ptr %10) #9
  %27 = getelementptr inbounds [1000 x i8], ptr %6, i64 0, i64 0
  %28 = call ptr @strtok(ptr noundef %27, ptr noundef @.str.22) #9
  store ptr %28, ptr %10, align 8, !tbaa !71
  br label %29

29:                                               ; preds = %50, %26
  %30 = load ptr, ptr %10, align 8, !tbaa !71
  %31 = icmp ne ptr %30, null
  br i1 %31, label %32, label %51

32:                                               ; preds = %29
  call void @llvm.lifetime.start.p0(i64 8, ptr %11) #9
  %33 = load ptr, ptr %4, align 8, !tbaa !3
  %34 = load ptr, ptr %10, align 8, !tbaa !71
  %35 = call ptr @Abc_NtkFindNode(ptr noundef %33, ptr noundef %34)
  store ptr %35, ptr %11, align 8, !tbaa !28
  %36 = load ptr, ptr %11, align 8, !tbaa !28
  %37 = icmp eq ptr %36, null
  br i1 %37, label %38, label %44

38:                                               ; preds = %32
  %39 = load ptr, ptr %10, align 8, !tbaa !71
  %40 = call i32 (ptr, ...) @printf(ptr noundef @.str.23, ptr noundef %39)
  %41 = load ptr, ptr %7, align 8, !tbaa !31
  call void @Vec_PtrFree(ptr noundef %41)
  %42 = load ptr, ptr %8, align 8, !tbaa !64
  %43 = call i32 @fclose(ptr noundef %42)
  store ptr null, ptr %3, align 8
  store i32 1, ptr %9, align 4
  br label %48

44:                                               ; preds = %32
  %45 = load ptr, ptr %7, align 8, !tbaa !31
  %46 = load ptr, ptr %11, align 8, !tbaa !28
  call void @Vec_PtrPush(ptr noundef %45, ptr noundef %46)
  %47 = call ptr @strtok(ptr noundef null, ptr noundef @.str.22) #9
  store ptr %47, ptr %10, align 8, !tbaa !71
  store i32 0, ptr %9, align 4
  br label %48

48:                                               ; preds = %44, %38
  call void @llvm.lifetime.end.p0(i64 8, ptr %11) #9
  %49 = load i32, ptr %9, align 4
  switch i32 %49, label %52 [
    i32 0, label %50
  ]

50:                                               ; preds = %48
  br label %29, !llvm.loop !110

51:                                               ; preds = %29
  store i32 0, ptr %9, align 4
  br label %52

52:                                               ; preds = %51, %48
  call void @llvm.lifetime.end.p0(i64 8, ptr %10) #9
  %53 = load i32, ptr %9, align 4
  switch i32 %53, label %59 [
    i32 0, label %54
  ]

54:                                               ; preds = %52
  br label %21, !llvm.loop !111

55:                                               ; preds = %21
  %56 = load ptr, ptr %8, align 8, !tbaa !64
  %57 = call i32 @fclose(ptr noundef %56)
  %58 = load ptr, ptr %7, align 8, !tbaa !31
  store ptr %58, ptr %3, align 8
  store i32 1, ptr %9, align 4
  br label %59

59:                                               ; preds = %55, %52, %16
  call void @llvm.lifetime.end.p0(i64 8, ptr %8) #9
  call void @llvm.lifetime.end.p0(i64 8, ptr %7) #9
  call void @llvm.lifetime.end.p0(i64 1000, ptr %6) #9
  %60 = load ptr, ptr %3, align 8
  ret ptr %60
}