; Function Attrs: nounwind uwtable
define noalias noundef ptr @Abc_NtkReadNodeNames(ptr noundef %0, ptr noundef %1) local_unnamed_addr #0 {
  %3 = alloca [1000 x i8], align 16
  call void @llvm.lifetime.start.p0(i64 1000, ptr nonnull %3) #16
  %4 = tail call noalias ptr @fopen(ptr noundef %1, ptr noundef nonnull @.str.20)
  %5 = icmp eq ptr %4, null
  br i1 %5, label %6, label %8

6:                                                ; preds = %2
  %7 = tail call i32 (ptr, ...) @printf(ptr noundef nonnull dereferenceable(1) @.str.21, ptr noundef %1)
  br label %59

8:                                                ; preds = %2
  %9 = tail call noalias dereferenceable_or_null(16) ptr @malloc(i64 noundef 16) #17
  %10 = getelementptr inbounds nuw i8, ptr %9, i64 4
  store i32 0, ptr %10, align 4, !tbaa !26
  store i32 100, ptr %9, align 8, !tbaa !40
  %11 = tail call noalias dereferenceable_or_null(800) ptr @malloc(i64 noundef 800) #17
  %12 = getelementptr inbounds nuw i8, ptr %9, i64 8
  store ptr %11, ptr %12, align 8, !tbaa !28
  %13 = call ptr @fgets(ptr noundef nonnull %3, i32 noundef 1000, ptr noundef nonnull %4)
  %.not30 = icmp eq ptr %13, null
  br i1 %.not30, label %.critedge._crit_edge, label %.lr.ph31

.critedge.loopexit:                               ; preds = %49, %.lr.ph31
  %14 = phi i32 [ %17, %.lr.ph31 ], [ %50, %49 ]
  %15 = phi i32 [ %18, %.lr.ph31 ], [ %52, %49 ]
  %16 = call ptr @fgets(ptr noundef nonnull %3, i32 noundef 1000, ptr noundef nonnull %4)
  %.not = icmp eq ptr %16, null
  br i1 %.not, label %.critedge._crit_edge, label %.lr.ph31

.lr.ph31:                                         ; preds = %8, %.critedge.loopexit
  %17 = phi i32 [ %14, %.critedge.loopexit ], [ 100, %8 ]
  %18 = phi i32 [ %15, %.critedge.loopexit ], [ 0, %8 ]
  %19 = call ptr @strtok(ptr noundef nonnull %3, ptr noundef nonnull @.str.22) #16
  %.not2428 = icmp eq ptr %19, null
  br i1 %.not2428, label %.critedge.loopexit, label %.lr.ph

.lr.ph:                                           ; preds = %.lr.ph31, %49
  %20 = phi i32 [ %50, %49 ], [ %17, %.lr.ph31 ]
  %21 = phi i32 [ %52, %49 ], [ %18, %.lr.ph31 ]
  %.01829 = phi ptr [ %55, %49 ], [ %19, %.lr.ph31 ]
  %22 = call ptr @Abc_NtkFindNode(ptr noundef %0, ptr noundef nonnull %.01829) #16
  %.not25 = icmp eq ptr %22, null
  br i1 %.not25, label %23, label %27

23:                                               ; preds = %.lr.ph
  %24 = call i32 (ptr, ...) @printf(ptr noundef nonnull dereferenceable(1) @.str.23, ptr noundef nonnull %.01829)
  %25 = load ptr, ptr %12, align 8, !tbaa !28
  %.not.i = icmp eq ptr %25, null
  br i1 %.not.i, label %56, label %26

26:                                               ; preds = %23
  call void @free(ptr noundef nonnull %25) #16
  br label %56

27:                                               ; preds = %.lr.ph
  %28 = icmp eq i32 %21, %20
  br i1 %28, label %29, label %.Vec_PtrGrow.exit11_crit_edge.i

.Vec_PtrGrow.exit11_crit_edge.i:                  ; preds = %27
  %.pre.i = load ptr, ptr %12, align 8, !tbaa !28
  br label %49

29:                                               ; preds = %27
  %30 = icmp slt i32 %20, 16
  br i1 %30, label %31, label %38

31:                                               ; preds = %29
  %32 = load ptr, ptr %12, align 8, !tbaa !28
  %.not9.i.i = icmp eq ptr %32, null
  br i1 %.not9.i.i, label %35, label %33

33:                                               ; preds = %31
  %34 = call dereferenceable_or_null(128) ptr @realloc(ptr noundef nonnull %32, i64 noundef 128) #18
  br label %Vec_PtrGrow.exit.i

35:                                               ; preds = %31
  %36 = call noalias dereferenceable_or_null(128) ptr @malloc(i64 noundef 128) #17
  br label %Vec_PtrGrow.exit.i

Vec_PtrGrow.exit.i:                               ; preds = %35, %33
  %37 = phi ptr [ %34, %33 ], [ %36, %35 ]
  store ptr %37, ptr %12, align 8, !tbaa !28
  store i32 16, ptr %9, align 8, !tbaa !40
  br label %49

38:                                               ; preds = %29
  %39 = shl nuw nsw i32 %20, 1
  %40 = load ptr, ptr %12, align 8, !tbaa !28
  %.not9.i10.i = icmp eq ptr %40, null
  %41 = zext nneg i32 %39 to i64
  %42 = shl nuw nsw i64 %41, 3
  br i1 %.not9.i10.i, label %45, label %43

43:                                               ; preds = %38
  %44 = call ptr @realloc(ptr noundef nonnull %40, i64 noundef %42) #18
  br label %47

45:                                               ; preds = %38
  %46 = call noalias ptr @malloc(i64 noundef %42) #17
  br label %47

47:                                               ; preds = %45, %43
  %48 = phi ptr [ %44, %43 ], [ %46, %45 ]
  store ptr %48, ptr %12, align 8, !tbaa !28
  store i32 %39, ptr %9, align 8, !tbaa !40
  br label %49

49:                                               ; preds = %47, %Vec_PtrGrow.exit.i, %.Vec_PtrGrow.exit11_crit_edge.i
  %50 = phi i32 [ %20, %.Vec_PtrGrow.exit11_crit_edge.i ], [ %39, %47 ], [ 16, %Vec_PtrGrow.exit.i ]
  %51 = phi ptr [ %.pre.i, %.Vec_PtrGrow.exit11_crit_edge.i ], [ %48, %47 ], [ %37, %Vec_PtrGrow.exit.i ]
  %52 = add nsw i32 %21, 1
  store i32 %52, ptr %10, align 4, !tbaa !26
  %53 = sext i32 %21 to i64
  %54 = getelementptr inbounds ptr, ptr %51, i64 %53
  store ptr %22, ptr %54, align 8, !tbaa !29
  %55 = call ptr @strtok(ptr noundef null, ptr noundef nonnull @.str.22) #16
  %.not24 = icmp eq ptr %55, null
  br i1 %.not24, label %.critedge.loopexit, label %.lr.ph, !llvm.loop !106

56:                                               ; preds = %26, %23
  call void @free(ptr noundef nonnull %9) #16
  %57 = call i32 @fclose(ptr noundef nonnull %4)
  br label %59, !llvm.loop !107

.critedge._crit_edge:                             ; preds = %.critedge.loopexit, %8
  %58 = call i32 @fclose(ptr noundef nonnull %4)
  br label %59

59:                                               ; preds = %56, %.critedge._crit_edge, %6
  %.0 = phi ptr [ null, %6 ], [ null, %56 ], [ %9, %.critedge._crit_edge ]
  call void @llvm.lifetime.end.p0(i64 1000, ptr nonnull %3) #16
  ret ptr %.0
}